target datalayout = "e-m:e-p270:32:32-p271:32:32-p272:64:64-i64:64-i128:128-f80:128-n8:16:32:64-S128"
target triple = "x86_64-pc-linux-gnu"

%struct.SDL_GUID = type { [16 x i8] }
%struct.SDL_Joystick = type { i32, ptr, ptr, ptr, %struct.SDL_GUID, i16, i64, i8, i8, i32, ptr, i32, ptr, i32, ptr, i32, ptr, i32, ptr, i32, i32, ptr, i16, i16, i64, i64, i16, i16, i64, i64, i8, i8, i8, i64, i8, i32, i32, i32, i8, i32, ptr, i32, ptr, [3 x [3 x float]], i64, ptr, ptr, i32, i32, ptr }
%struct.SDL_sensorlist_item = type { ptr, i64, ptr, ptr }
%struct.joystick_hwdata = type { i32, i32, ptr, ptr, %struct.SDL_GUID, ptr, i8, i8, %struct.ff_effect, i32, ptr, ptr, [767 x i8], [63 x i8], [767 x i8], [63 x i8], i8, i8, i8, ptr, ptr, [63 x %struct.axis_correct], [3 x float], [3 x float], [3 x float], [3 x float], i64, i32, i8, i8, i8, i8, i8, [4 x i32], [4 x i8], [4 x %struct.hat_axis_correct], i8, i8 }
%struct.ff_effect = type { i16, i16, i16, %struct.ff_trigger, %struct.ff_replay, %union.anon }
%struct.ff_trigger = type { i16, i16 }
%struct.ff_replay = type { i16, i16 }
%union.anon = type { %struct.ff_periodic_effect }
%struct.ff_periodic_effect = type { i16, i16, i16, i16, i16, %struct.ff_envelope, i32, ptr }
%struct.ff_envelope = type { i16, i16, i16, i16 }
%struct.axis_correct = type { i8, [3 x i32], i32, i32, float }
%struct.hat_axis_correct = type { i8, [2 x i32], [2 x i32] }

@.str.23 = private unnamed_addr constant [32 x i8] c"That operation is not supported\00", align 1
@.str.26 = private unnamed_addr constant [19 x i8] c"Sensors unplugged.\00", align 1
@.str.27 = private unnamed_addr constant [30 x i8] c"Couldn't open sensor file %s.\00", align 1

; Function Attrs: nounwind uwtable
define internal zeroext i1 @LINUX_JoystickSetSensorsEnabled(ptr noundef %0, i1 noundef zeroext %1) #0 {
  %3 = alloca i1, align 1
  %4 = alloca ptr, align 8
  %5 = alloca i8, align 1
  store ptr %0, ptr %4, align 8
  %6 = zext i1 %1 to i8
  store i8 %6, ptr %5, align 1
  call void @SDL_AssertJoysticksLocked()
  %7 = load ptr, ptr %4, align 8
  %8 = getelementptr inbounds nuw %struct.SDL_Joystick, ptr %7, i32 0, i32 46
  %9 = load ptr, ptr %8, align 8
  %10 = getelementptr inbounds nuw %struct.joystick_hwdata, ptr %9, i32 0, i32 16
  %11 = load i8, ptr %10, align 4, !range !5, !noundef !6
  %12 = trunc i8 %11 to i1
  br i1 %12, label %22, label %13

13:                                               ; preds = %2
  %14 = load ptr, ptr %4, align 8
  %15 = getelementptr inbounds nuw %struct.SDL_Joystick, ptr %14, i32 0, i32 46
  %16 = load ptr, ptr %15, align 8
  %17 = getelementptr inbounds nuw %struct.joystick_hwdata, ptr %16, i32 0, i32 17
  %18 = load i8, ptr %17, align 1, !range !5, !noundef !6
  %19 = trunc i8 %18 to i1
  br i1 %19, label %22, label %20

20:                                               ; preds = %13
  %21 = call zeroext i1 (ptr, ...) @SDL_SetError_REAL(ptr noundef @.str.23)
  store i1 %21, ptr %3, align 1
  br label %103

22:                                               ; preds = %13, %2
  %23 = load i8, ptr %5, align 1, !range !5, !noundef !6
  %24 = trunc i8 %23 to i1
  %25 = zext i1 %24 to i32
  %26 = load ptr, ptr %4, align 8
  %27 = getelementptr inbounds nuw %struct.SDL_Joystick, ptr %26, i32 0, i32 46
  %28 = load ptr, ptr %27, align 8
  %29 = getelementptr inbounds nuw %struct.joystick_hwdata, ptr %28, i32 0, i32 28
  %30 = load i8, ptr %29, align 4, !range !5, !noundef !6
  %31 = trunc i8 %30 to i1
  %32 = zext i1 %31 to i32
  %33 = icmp eq i32 %25, %32
  br i1 %33, label %34, label %35

34:                                               ; preds = %22
  store i1 true, ptr %3, align 1
  br label %103

35:                                               ; preds = %22
  %36 = load i8, ptr %5, align 1, !range !5, !noundef !6
  %37 = trunc i8 %36 to i1
  br i1 %37, label %38, label %82

38:                                               ; preds = %35
  %39 = load ptr, ptr %4, align 8
  %40 = getelementptr inbounds nuw %struct.SDL_Joystick, ptr %39, i32 0, i32 46
  %41 = load ptr, ptr %40, align 8
  %42 = getelementptr inbounds nuw %struct.joystick_hwdata, ptr %41, i32 0, i32 3
  %43 = load ptr, ptr %42, align 8
  %44 = icmp ne ptr %43, null
  br i1 %44, label %47, label %45

45:                                               ; preds = %38
  %46 = call zeroext i1 (ptr, ...) @SDL_SetError_REAL(ptr noundef @.str.26)
  store i1 %46, ptr %3, align 1
  br label %103

47:                                               ; preds = %38
  %48 = load ptr, ptr %4, align 8
  %49 = getelementptr inbounds nuw %struct.SDL_Joystick, ptr %48, i32 0, i32 46
  %50 = load ptr, ptr %49, align 8
  %51 = getelementptr inbounds nuw %struct.joystick_hwdata, ptr %50, i32 0, i32 3
  %52 = load ptr, ptr %51, align 8
  %53 = getelementptr inbounds nuw %struct.SDL_sensorlist_item, ptr %52, i32 0, i32 0
  %54 = load ptr, ptr %53, align 8
  %55 = call i32 (ptr, i32, ...) @open(ptr noundef %54, i32 noundef 524288, i32 noundef 0)
  %56 = load ptr, ptr %4, align 8
  %57 = getelementptr inbounds nuw %struct.SDL_Joystick, ptr %56, i32 0, i32 46
  %58 = load ptr, ptr %57, align 8
  %59 = getelementptr inbounds nuw %struct.joystick_hwdata, ptr %58, i32 0, i32 1
  store i32 %55, ptr %59, align 4
  %60 = load ptr, ptr %4, align 8
  %61 = getelementptr inbounds nuw %struct.SDL_Joystick, ptr %60, i32 0, i32 46
  %62 = load ptr, ptr %61, align 8
  %63 = getelementptr inbounds nuw %struct.joystick_hwdata, ptr %62, i32 0, i32 1
  %64 = load i32, ptr %63, align 4
  %65 = icmp slt i32 %64, 0
  br i1 %65, label %66, label %75

66:                                               ; preds = %47
  %67 = load ptr, ptr %4, align 8
  %68 = getelementptr inbounds nuw %struct.SDL_Joystick, ptr %67, i32 0, i32 46
  %69 = load ptr, ptr %68, align 8
  %70 = getelementptr inbounds nuw %struct.joystick_hwdata, ptr %69, i32 0, i32 3
  %71 = load ptr, ptr %70, align 8
  %72 = getelementptr inbounds nuw %struct.SDL_sensorlist_item, ptr %71, i32 0, i32 0
  %73 = load ptr, ptr %72, align 8
  %74 = call zeroext i1 (ptr, ...) @SDL_SetError_REAL(ptr noundef @.str.27, ptr noundef %73)
  store i1 %74, ptr %3, align 1
  br label %103

75:                                               ; preds = %47
  %76 = load ptr, ptr %4, align 8
  %77 = getelementptr inbounds nuw %struct.SDL_Joystick, ptr %76, i32 0, i32 46
  %78 = load ptr, ptr %77, align 8
  %79 = getelementptr inbounds nuw %struct.joystick_hwdata, ptr %78, i32 0, i32 1
  %80 = load i32, ptr %79, align 4
  %81 = call i32 (i32, i32, ...) @fcntl(i32 noundef %80, i32 noundef 4, i32 noundef 2048)
  br label %95

82:                                               ; preds = %35
  br label %83

83:                                               ; preds = %82
  br label %84

84:                                               ; preds = %83
  %85 = load ptr, ptr %4, align 8
  %86 = getelementptr inbounds nuw %struct.SDL_Joystick, ptr %85, i32 0, i32 46
  %87 = load ptr, ptr %86, align 8
  %88 = getelementptr inbounds nuw %struct.joystick_hwdata, ptr %87, i32 0, i32 1
  %89 = load i32, ptr %88, align 4
  %90 = call i32 @close(i32 noundef %89)
  %91 = load ptr, ptr %4, align 8
  %92 = getelementptr inbounds nuw %struct.SDL_Joystick, ptr %91, i32 0, i32 46
  %93 = load ptr, ptr %92, align 8
  %94 = getelementptr inbounds nuw %struct.joystick_hwdata, ptr %93, i32 0, i32 1
  store i32 -1, ptr %94, align 4
  br label %95

95:                                               ; preds = %84, %75
  %96 = load i8, ptr %5, align 1, !range !5, !noundef !6
  %97 = trunc i8 %96 to i1
  %98 = load ptr, ptr %4, align 8
  %99 = getelementptr inbounds nuw %struct.SDL_Joystick, ptr %98, i32 0, i32 46
  %100 = load ptr, ptr %99, align 8
  %101 = getelementptr inbounds nuw %struct.joystick_hwdata, ptr %100, i32 0, i32 28
  %102 = zext i1 %97 to i8
  store i8 %102, ptr %101, align 4
  store i1 true, ptr %3, align 1
  br label %103

103:                                              ; preds = %95, %66, %45, %34, %20
  %104 = load i1, ptr %3, align 1
  ret i1 %104
}