; Function Attrs: nounwind uwtable
define internal zeroext i1 @LINUX_JoystickSetSensorsEnabled(ptr noundef readonly captures(none) %0, i1 noundef zeroext %1) #0 {
  %3 = zext i1 %1 to i8
  tail call void @SDL_AssertJoysticksLocked() #18
  %4 = getelementptr inbounds nuw i8, ptr %0, i64 328
  %5 = load ptr, ptr %4, align 8
  %6 = getelementptr inbounds nuw i8, ptr %5, i64 1788
  %7 = load i8, ptr %6, align 4, !range !5, !noundef !6
  %8 = trunc nuw i8 %7 to i1
  br i1 %8, label %15, label %9

9:                                                ; preds = %2
  %10 = getelementptr inbounds nuw i8, ptr %5, i64 1789
  %11 = load i8, ptr %10, align 1, !range !5, !noundef !6
  %12 = trunc nuw i8 %11 to i1
  br i1 %12, label %15, label %13

13:                                               ; preds = %9
  %14 = tail call zeroext i1 (ptr, ...) @SDL_SetError_REAL(ptr noundef nonnull @.str.23) #18
  br label %50

15:                                               ; preds = %9, %2
  %16 = getelementptr inbounds nuw i8, ptr %5, i64 3636
  %17 = load i8, ptr %16, align 4, !range !5, !noundef !6
  %18 = icmp eq i8 %17, %3
  br i1 %18, label %50, label %19

19:                                               ; preds = %15
  br i1 %1, label %20, label %41

20:                                               ; preds = %19
  %21 = getelementptr inbounds nuw i8, ptr %5, i64 16
  %22 = load ptr, ptr %21, align 8
  %.not = icmp eq ptr %22, null
  br i1 %.not, label %23, label %25

23:                                               ; preds = %20
  %24 = tail call zeroext i1 (ptr, ...) @SDL_SetError_REAL(ptr noundef nonnull @.str.26) #18
  br label %50

25:                                               ; preds = %20
  %26 = load ptr, ptr %22, align 8
  %27 = tail call i32 (ptr, i32, ...) @open(ptr noundef %26, i32 noundef 524288, i32 noundef 0) #18
  %28 = load ptr, ptr %4, align 8
  %29 = getelementptr inbounds nuw i8, ptr %28, i64 4
  store i32 %27, ptr %29, align 4
  %30 = load ptr, ptr %4, align 8
  %31 = getelementptr inbounds nuw i8, ptr %30, i64 4
  %32 = load i32, ptr %31, align 4
  %33 = icmp slt i32 %32, 0
  br i1 %33, label %34, label %39

34:                                               ; preds = %25
  %35 = getelementptr inbounds nuw i8, ptr %30, i64 16
  %36 = load ptr, ptr %35, align 8
  %37 = load ptr, ptr %36, align 8
  %38 = tail call zeroext i1 (ptr, ...) @SDL_SetError_REAL(ptr noundef nonnull @.str.27, ptr noundef %37) #18
  br label %50

39:                                               ; preds = %25
  %40 = tail call i32 (i32, i32, ...) @fcntl(i32 noundef %32, i32 noundef 4, i32 noundef 2048) #18
  br label %47

41:                                               ; preds = %19
  %42 = getelementptr inbounds nuw i8, ptr %5, i64 4
  %43 = load i32, ptr %42, align 4
  %44 = tail call i32 @close(i32 noundef %43) #18
  %45 = load ptr, ptr %4, align 8
  %46 = getelementptr inbounds nuw i8, ptr %45, i64 4
  store i32 -1, ptr %46, align 4
  br label %47

47:                                               ; preds = %41, %39
  %48 = load ptr, ptr %4, align 8
  %49 = getelementptr inbounds nuw i8, ptr %48, i64 3636
  store i8 %3, ptr %49, align 4
  br label %50

50:                                               ; preds = %15, %47, %34, %23, %13
  %.0 = phi i1 [ %38, %34 ], [ true, %47 ], [ %24, %23 ], [ %14, %13 ], [ true, %15 ]
  ret i1 %.0
}